; Function Attrs: nounwind uwtable
define internal range(i32 0, 2) i32 @sock_connect_impl(ptr noundef readonly captures(none) %0, ptr readnone captures(none) %1) #0 {
  %3 = alloca i32, align 4
  %4 = alloca i32, align 4
  call void @llvm.lifetime.start.p0(i64 4, ptr nonnull %3) #13
  call void @llvm.lifetime.start.p0(i64 4, ptr nonnull %4) #13
  store i32 4, ptr %4, align 4, !tbaa !35
  %5 = getelementptr i8, ptr %0, i64 16
  %.val = load i32, ptr %5, align 8, !tbaa !83
  %6 = call i32 @getsockopt(i32 noundef %.val, i32 noundef 1, i32 noundef 4, ptr noundef nonnull %3, ptr noundef nonnull %4) #13
  %.not = icmp eq i32 %6, 0
  br i1 %.not, label %7, label %11

7:                                                ; preds = %2
  %8 = load i32, ptr %3, align 4, !tbaa !35
  switch i32 %8, label %9 [
    i32 106, label %11
    i32 0, label %11
  ]

9:                                                ; preds = %7
  %10 = tail call ptr @__errno_location() #14
  store i32 %8, ptr %10, align 4, !tbaa !35
  br label %11

11:                                               ; preds = %7, %7, %2, %9
  %.0 = phi i32 [ 0, %9 ], [ 0, %2 ], [ 1, %7 ], [ 1, %7 ]
  call void @llvm.lifetime.end.p0(i64 4, ptr nonnull %4) #13
  call void @llvm.lifetime.end.p0(i64 4, ptr nonnull %3) #13
  ret i32 %.0
}